target datalayout = "e-m:e-p270:32:32-p271:32:32-p272:64:64-i64:64-i128:128-f80:128-n8:16:32:64-S128"
target triple = "x86_64-pc-linux-gnu"

%struct.ec_method_st = type { i32, i32, ptr, ptr, ptr, ptr, ptr, ptr, ptr, ptr, ptr, ptr, ptr, ptr, ptr, ptr, ptr, ptr, ptr, ptr, ptr, ptr, ptr, ptr, ptr, ptr, ptr, ptr, ptr, ptr, ptr, ptr, ptr, ptr, ptr, ptr, ptr, ptr, ptr, ptr, ptr, ptr, ptr, ptr, ptr, ptr, ptr, ptr, ptr, ptr, ptr, ptr, ptr, ptr, ptr, ptr, ptr }
%struct.ec_group_st = type { ptr, ptr, ptr, ptr, i32, i32, i32, i32, ptr, i64, ptr, [6 x i32], ptr, ptr, i32, ptr, ptr, ptr, ptr, i32, %union.anon, ptr, ptr }
%union.anon = type { ptr }

@.str = private unnamed_addr constant [32 x i8] c"../openssl/crypto/ec/ecp_smpl.c\00", align 1
@__func__.ossl_ec_GFp_simple_group_check_discriminant = private unnamed_addr constant [44 x i8] c"ossl_ec_GFp_simple_group_check_discriminant\00", align 1

; Function Attrs: nounwind uwtable
define i32 @ossl_ec_GFp_simple_group_check_discriminant(ptr noundef %0, ptr noundef %1) #0 {
  %3 = alloca ptr, align 8
  %4 = alloca ptr, align 8
  %5 = alloca i32, align 4
  %6 = alloca ptr, align 8
  %7 = alloca ptr, align 8
  %8 = alloca ptr, align 8
  %9 = alloca ptr, align 8
  %10 = alloca ptr, align 8
  %11 = alloca ptr, align 8
  %12 = alloca ptr, align 8
  store ptr %0, ptr %3, align 8, !tbaa !3
  store ptr %1, ptr %4, align 8, !tbaa !22
  call void @llvm.lifetime.start.p0(i64 4, ptr %5) #3
  store i32 0, ptr %5, align 4, !tbaa !24
  call void @llvm.lifetime.start.p0(i64 8, ptr %6) #3
  call void @llvm.lifetime.start.p0(i64 8, ptr %7) #3
  call void @llvm.lifetime.start.p0(i64 8, ptr %8) #3
  call void @llvm.lifetime.start.p0(i64 8, ptr %9) #3
  call void @llvm.lifetime.start.p0(i64 8, ptr %10) #3
  call void @llvm.lifetime.start.p0(i64 8, ptr %11) #3
  %13 = load ptr, ptr %3, align 8, !tbaa !3
  %14 = getelementptr inbounds nuw %struct.ec_group_st, ptr %13, i32 0, i32 10
  %15 = load ptr, ptr %14, align 8, !tbaa !8
  store ptr %15, ptr %11, align 8, !tbaa !21
  call void @llvm.lifetime.start.p0(i64 8, ptr %12) #3
  store ptr null, ptr %12, align 8, !tbaa !22
  %16 = load ptr, ptr %4, align 8, !tbaa !22
  %17 = icmp eq ptr %16, null
  br i1 %17, label %18, label %27

18:                                               ; preds = %2
  %19 = load ptr, ptr %3, align 8, !tbaa !3
  %20 = getelementptr inbounds nuw %struct.ec_group_st, ptr %19, i32 0, i32 21
  %21 = load ptr, ptr %20, align 8, !tbaa !25
  %22 = call ptr @BN_CTX_new_ex(ptr noundef %21)
  store ptr %22, ptr %12, align 8, !tbaa !22
  store ptr %22, ptr %4, align 8, !tbaa !22
  %23 = load ptr, ptr %4, align 8, !tbaa !22
  %24 = icmp eq ptr %23, null
  br i1 %24, label %25, label %26

25:                                               ; preds = %18
  call void @ERR_new()
  call void @ERR_set_debug(ptr noundef @.str, i32 noundef 261, ptr noundef @__func__.ossl_ec_GFp_simple_group_check_discriminant)
  call void (i32, i32, ptr, ...) @ERR_set_error(i32 noundef 16, i32 noundef 524291, ptr noundef null)
  br label %164

26:                                               ; preds = %18
  br label %27

27:                                               ; preds = %26, %2
  %28 = load ptr, ptr %4, align 8, !tbaa !22
  call void @BN_CTX_start(ptr noundef %28)
  %29 = load ptr, ptr %4, align 8, !tbaa !22
  %30 = call ptr @BN_CTX_get(ptr noundef %29)
  store ptr %30, ptr %6, align 8, !tbaa !21
  %31 = load ptr, ptr %4, align 8, !tbaa !22
  %32 = call ptr @BN_CTX_get(ptr noundef %31)
  store ptr %32, ptr %7, align 8, !tbaa !21
  %33 = load ptr, ptr %4, align 8, !tbaa !22
  %34 = call ptr @BN_CTX_get(ptr noundef %33)
  store ptr %34, ptr %9, align 8, !tbaa !21
  %35 = load ptr, ptr %4, align 8, !tbaa !22
  %36 = call ptr @BN_CTX_get(ptr noundef %35)
  store ptr %36, ptr %10, align 8, !tbaa !21
  %37 = load ptr, ptr %4, align 8, !tbaa !22
  %38 = call ptr @BN_CTX_get(ptr noundef %37)
  store ptr %38, ptr %8, align 8, !tbaa !21
  %39 = load ptr, ptr %8, align 8, !tbaa !21
  %40 = icmp eq ptr %39, null
  br i1 %40, label %41, label %42

41:                                               ; preds = %27
  br label %164

42:                                               ; preds = %27
  %43 = load ptr, ptr %3, align 8, !tbaa !3
  %44 = getelementptr inbounds nuw %struct.ec_group_st, ptr %43, i32 0, i32 0
  %45 = load ptr, ptr %44, align 8, !tbaa !26
  %46 = getelementptr inbounds nuw %struct.ec_method_st, ptr %45, i32 0, i32 37
  %47 = load ptr, ptr %46, align 8, !tbaa !29
  %48 = icmp ne ptr %47, null
  br i1 %48, label %49, label %80

49:                                               ; preds = %42
  %50 = load ptr, ptr %3, align 8, !tbaa !3
  %51 = getelementptr inbounds nuw %struct.ec_group_st, ptr %50, i32 0, i32 0
  %52 = load ptr, ptr %51, align 8, !tbaa !26
  %53 = getelementptr inbounds nuw %struct.ec_method_st, ptr %52, i32 0, i32 37
  %54 = load ptr, ptr %53, align 8, !tbaa !29
  %55 = load ptr, ptr %3, align 8, !tbaa !3
  %56 = load ptr, ptr %6, align 8, !tbaa !21
  %57 = load ptr, ptr %3, align 8, !tbaa !3
  %58 = getelementptr inbounds nuw %struct.ec_group_st, ptr %57, i32 0, i32 12
  %59 = load ptr, ptr %58, align 8, !tbaa !18
  %60 = load ptr, ptr %4, align 8, !tbaa !22
  %61 = call i32 %54(ptr noundef %55, ptr noundef %56, ptr noundef %59, ptr noundef %60)
  %62 = icmp ne i32 %61, 0
  br i1 %62, label %64, label %63

63:                                               ; preds = %49
  br label %164

64:                                               ; preds = %49
  %65 = load ptr, ptr %3, align 8, !tbaa !3
  %66 = getelementptr inbounds nuw %struct.ec_group_st, ptr %65, i32 0, i32 0
  %67 = load ptr, ptr %66, align 8, !tbaa !26
  %68 = getelementptr inbounds nuw %struct.ec_method_st, ptr %67, i32 0, i32 37
  %69 = load ptr, ptr %68, align 8, !tbaa !29
  %70 = load ptr, ptr %3, align 8, !tbaa !3
  %71 = load ptr, ptr %7, align 8, !tbaa !21
  %72 = load ptr, ptr %3, align 8, !tbaa !3
  %73 = getelementptr inbounds nuw %struct.ec_group_st, ptr %72, i32 0, i32 13
  %74 = load ptr, ptr %73, align 8, !tbaa !19
  %75 = load ptr, ptr %4, align 8, !tbaa !22
  %76 = call i32 %69(ptr noundef %70, ptr noundef %71, ptr noundef %74, ptr noundef %75)
  %77 = icmp ne i32 %76, 0
  br i1 %77, label %79, label %78

78:                                               ; preds = %64
  br label %164

79:                                               ; preds = %64
  br label %97

80:                                               ; preds = %42
  %81 = load ptr, ptr %6, align 8, !tbaa !21
  %82 = load ptr, ptr %3, align 8, !tbaa !3
  %83 = getelementptr inbounds nuw %struct.ec_group_st, ptr %82, i32 0, i32 12
  %84 = load ptr, ptr %83, align 8, !tbaa !18
  %85 = call ptr @BN_copy(ptr noundef %81, ptr noundef %84)
  %86 = icmp ne ptr %85, null
  br i1 %86, label %88, label %87

87:                                               ; preds = %80
  br label %164

88:                                               ; preds = %80
  %89 = load ptr, ptr %7, align 8, !tbaa !21
  %90 = load ptr, ptr %3, align 8, !tbaa !3
  %91 = getelementptr inbounds nuw %struct.ec_group_st, ptr %90, i32 0, i32 13
  %92 = load ptr, ptr %91, align 8, !tbaa !19
  %93 = call ptr @BN_copy(ptr noundef %89, ptr noundef %92)
  %94 = icmp ne ptr %93, null
  br i1 %94, label %96, label %95

95:                                               ; preds = %88
  br label %164

96:                                               ; preds = %88
  br label %97

97:                                               ; preds = %96, %79
  %98 = load ptr, ptr %6, align 8, !tbaa !21
  %99 = call i32 @BN_is_zero(ptr noundef %98)
  %100 = icmp ne i32 %99, 0
  br i1 %100, label %101, label %107

101:                                              ; preds = %97
  %102 = load ptr, ptr %7, align 8, !tbaa !21
  %103 = call i32 @BN_is_zero(ptr noundef %102)
  %104 = icmp ne i32 %103, 0
  br i1 %104, label %105, label %106

105:                                              ; preds = %101
  br label %164

106:                                              ; preds = %101
  br label %163

107:                                              ; preds = %97
  %108 = load ptr, ptr %7, align 8, !tbaa !21
  %109 = call i32 @BN_is_zero(ptr noundef %108)
  %110 = icmp ne i32 %109, 0
  br i1 %110, label %162, label %111

111:                                              ; preds = %107
  %112 = load ptr, ptr %9, align 8, !tbaa !21
  %113 = load ptr, ptr %6, align 8, !tbaa !21
  %114 = load ptr, ptr %11, align 8, !tbaa !21
  %115 = load ptr, ptr %4, align 8, !tbaa !22
  %116 = call i32 @BN_mod_sqr(ptr noundef %112, ptr noundef %113, ptr noundef %114, ptr noundef %115)
  %117 = icmp ne i32 %116, 0
  br i1 %117, label %119, label %118

118:                                              ; preds = %111
  br label %164

119:                                              ; preds = %111
  %120 = load ptr, ptr %10, align 8, !tbaa !21
  %121 = load ptr, ptr %9, align 8, !tbaa !21
  %122 = load ptr, ptr %6, align 8, !tbaa !21
  %123 = load ptr, ptr %11, align 8, !tbaa !21
  %124 = load ptr, ptr %4, align 8, !tbaa !22
  %125 = call i32 @BN_mod_mul(ptr noundef %120, ptr noundef %121, ptr noundef %122, ptr noundef %123, ptr noundef %124)
  %126 = icmp ne i32 %125, 0
  br i1 %126, label %128, label %127

127:                                              ; preds = %119
  br label %164

128:                                              ; preds = %119
  %129 = load ptr, ptr %9, align 8, !tbaa !21
  %130 = load ptr, ptr %10, align 8, !tbaa !21
  %131 = call i32 @BN_lshift(ptr noundef %129, ptr noundef %130, i32 noundef 2)
  %132 = icmp ne i32 %131, 0
  br i1 %132, label %134, label %133

133:                                              ; preds = %128
  br label %164

134:                                              ; preds = %128
  %135 = load ptr, ptr %10, align 8, !tbaa !21
  %136 = load ptr, ptr %7, align 8, !tbaa !21
  %137 = load ptr, ptr %11, align 8, !tbaa !21
  %138 = load ptr, ptr %4, align 8, !tbaa !22
  %139 = call i32 @BN_mod_sqr(ptr noundef %135, ptr noundef %136, ptr noundef %137, ptr noundef %138)
  %140 = icmp ne i32 %139, 0
  br i1 %140, label %142, label %141

141:                                              ; preds = %134
  br label %164

142:                                              ; preds = %134
  %143 = load ptr, ptr %10, align 8, !tbaa !21
  %144 = call i32 @BN_mul_word(ptr noundef %143, i64 noundef 27)
  %145 = icmp ne i32 %144, 0
  br i1 %145, label %147, label %146

146:                                              ; preds = %142
  br label %164

147:                                              ; preds = %142
  %148 = load ptr, ptr %6, align 8, !tbaa !21
  %149 = load ptr, ptr %9, align 8, !tbaa !21
  %150 = load ptr, ptr %10, align 8, !tbaa !21
  %151 = load ptr, ptr %11, align 8, !tbaa !21
  %152 = load ptr, ptr %4, align 8, !tbaa !22
  %153 = call i32 @BN_mod_add(ptr noundef %148, ptr noundef %149, ptr noundef %150, ptr noundef %151, ptr noundef %152)
  %154 = icmp ne i32 %153, 0
  br i1 %154, label %156, label %155

155:                                              ; preds = %147
  br label %164

156:                                              ; preds = %147
  %157 = load ptr, ptr %6, align 8, !tbaa !21
  %158 = call i32 @BN_is_zero(ptr noundef %157)
  %159 = icmp ne i32 %158, 0
  br i1 %159, label %160, label %161

160:                                              ; preds = %156
  br label %164

161:                                              ; preds = %156
  br label %162

162:                                              ; preds = %161, %107
  br label %163

163:                                              ; preds = %162, %106
  store i32 1, ptr %5, align 4, !tbaa !24
  br label %164

164:                                              ; preds = %163, %160, %155, %146, %141, %133, %127, %118, %105, %95, %87, %78, %63, %41, %25
  %165 = load ptr, ptr %4, align 8, !tbaa !22
  call void @BN_CTX_end(ptr noundef %165)
  %166 = load ptr, ptr %12, align 8, !tbaa !22
  call void @BN_CTX_free(ptr noundef %166)
  %167 = load i32, ptr %5, align 4, !tbaa !24
  call void @llvm.lifetime.end.p0(i64 8, ptr %12) #3
  call void @llvm.lifetime.end.p0(i64 8, ptr %11) #3
  call void @llvm.lifetime.end.p0(i64 8, ptr %10) #3
  call void @llvm.lifetime.end.p0(i64 8, ptr %9) #3
  call void @llvm.lifetime.end.p0(i64 8, ptr %8) #3
  call void @llvm.lifetime.end.p0(i64 8, ptr %7) #3
  call void @llvm.lifetime.end.p0(i64 8, ptr %6) #3
  call void @llvm.lifetime.end.p0(i64 4, ptr %5) #3
  ret i32 %167
}