; Function Attrs: nounwind uwtable
define range(i32 0, 2) i32 @ossl_ec_GFp_simple_group_check_discriminant(ptr noundef %0, ptr noundef %1) #1 {
  %3 = getelementptr inbounds nuw i8, ptr %0, i64 64
  %4 = load ptr, ptr %3, align 8, !tbaa !3
  %5 = icmp eq ptr %1, null
  br i1 %5, label %6, label %12

6:                                                ; preds = %2
  %7 = getelementptr inbounds nuw i8, ptr %0, i64 168
  %8 = load ptr, ptr %7, align 8, !tbaa !19
  %9 = tail call ptr @BN_CTX_new_ex(ptr noundef %8) #4
  %10 = icmp eq ptr %9, null
  br i1 %10, label %11, label %12

11:                                               ; preds = %6
  tail call void @ERR_new() #4
  tail call void @ERR_set_debug(ptr noundef nonnull @.str, i32 noundef 261, ptr noundef nonnull @__func__.ossl_ec_GFp_simple_group_check_discriminant) #4
  tail call void (i32, i32, ptr, ...) @ERR_set_error(i32 noundef 16, i32 noundef 524291, ptr noundef null) #4
  br label %60

12:                                               ; preds = %6, %2
  %.053 = phi ptr [ %9, %6 ], [ %1, %2 ]
  %.0 = phi ptr [ %9, %6 ], [ null, %2 ]
  tail call void @BN_CTX_start(ptr noundef nonnull %.053) #4
  %13 = tail call ptr @BN_CTX_get(ptr noundef nonnull %.053) #4
  %14 = tail call ptr @BN_CTX_get(ptr noundef nonnull %.053) #4
  %15 = tail call ptr @BN_CTX_get(ptr noundef nonnull %.053) #4
  %16 = tail call ptr @BN_CTX_get(ptr noundef nonnull %.053) #4
  %17 = tail call ptr @BN_CTX_get(ptr noundef nonnull %.053) #4
  %18 = icmp eq ptr %17, null
  br i1 %18, label %60, label %19

19:                                               ; preds = %12
  %20 = load ptr, ptr %0, align 8, !tbaa !20
  %21 = getelementptr inbounds nuw i8, ptr %20, i64 288
  %22 = load ptr, ptr %21, align 8, !tbaa !23
  %.not = icmp eq ptr %22, null
  %23 = getelementptr inbounds nuw i8, ptr %0, i64 96
  %24 = load ptr, ptr %23, align 8, !tbaa !16
  br i1 %.not, label %34, label %25

25:                                               ; preds = %19
  %26 = tail call i32 %22(ptr noundef nonnull %0, ptr noundef %13, ptr noundef %24, ptr noundef nonnull %.053) #4
  %.not62 = icmp eq i32 %26, 0
  br i1 %.not62, label %60, label %27

27:                                               ; preds = %25
  %28 = load ptr, ptr %0, align 8, !tbaa !20
  %29 = getelementptr inbounds nuw i8, ptr %28, i64 288
  %30 = load ptr, ptr %29, align 8, !tbaa !23
  %31 = getelementptr inbounds nuw i8, ptr %0, i64 104
  %32 = load ptr, ptr %31, align 8, !tbaa !17
  %33 = tail call i32 %30(ptr noundef nonnull %0, ptr noundef %14, ptr noundef %32, ptr noundef nonnull %.053) #4
  %.not63 = icmp eq i32 %33, 0
  br i1 %.not63, label %60, label %40

34:                                               ; preds = %19
  %35 = tail call ptr @BN_copy(ptr noundef %13, ptr noundef %24) #4
  %.not60 = icmp eq ptr %35, null
  br i1 %.not60, label %60, label %36

36:                                               ; preds = %34
  %37 = getelementptr inbounds nuw i8, ptr %0, i64 104
  %38 = load ptr, ptr %37, align 8, !tbaa !17
  %39 = tail call ptr @BN_copy(ptr noundef %14, ptr noundef %38) #4
  %.not61 = icmp eq ptr %39, null
  br i1 %.not61, label %60, label %40

40:                                               ; preds = %36, %27
  %41 = tail call i32 @BN_is_zero(ptr noundef %13) #4
  %.not64 = icmp eq i32 %41, 0
  %42 = tail call i32 @BN_is_zero(ptr noundef %14) #4
  %.not65 = icmp eq i32 %42, 0
  br i1 %.not64, label %44, label %43

43:                                               ; preds = %40
  br i1 %.not65, label %59, label %60

44:                                               ; preds = %40
  br i1 %.not65, label %45, label %59

45:                                               ; preds = %44
  %46 = tail call i32 @BN_mod_sqr(ptr noundef %15, ptr noundef %13, ptr noundef %4, ptr noundef nonnull %.053) #4
  %.not66 = icmp eq i32 %46, 0
  br i1 %.not66, label %60, label %47

47:                                               ; preds = %45
  %48 = tail call i32 @BN_mod_mul(ptr noundef %16, ptr noundef %15, ptr noundef %13, ptr noundef %4, ptr noundef nonnull %.053) #4
  %.not67 = icmp eq i32 %48, 0
  br i1 %.not67, label %60, label %49

49:                                               ; preds = %47
  %50 = tail call i32 @BN_lshift(ptr noundef %15, ptr noundef %16, i32 noundef 2) #4
  %.not68 = icmp eq i32 %50, 0
  br i1 %.not68, label %60, label %51

51:                                               ; preds = %49
  %52 = tail call i32 @BN_mod_sqr(ptr noundef %16, ptr noundef %14, ptr noundef %4, ptr noundef nonnull %.053) #4
  %.not69 = icmp eq i32 %52, 0
  br i1 %.not69, label %60, label %53

53:                                               ; preds = %51
  %54 = tail call i32 @BN_mul_word(ptr noundef %16, i64 noundef 27) #4
  %.not70 = icmp eq i32 %54, 0
  br i1 %.not70, label %60, label %55

55:                                               ; preds = %53
  %56 = tail call i32 @BN_mod_add(ptr noundef %13, ptr noundef %15, ptr noundef %16, ptr noundef %4, ptr noundef nonnull %.053) #4
  %.not71 = icmp eq i32 %56, 0
  br i1 %.not71, label %60, label %57

57:                                               ; preds = %55
  %58 = tail call i32 @BN_is_zero(ptr noundef %13) #4
  %.not72 = icmp eq i32 %58, 0
  br i1 %.not72, label %59, label %60

59:                                               ; preds = %44, %57, %43
  br label %60

60:                                               ; preds = %57, %55, %53, %51, %49, %47, %45, %43, %36, %34, %27, %25, %12, %59, %11
  %.055 = phi i32 [ 0, %11 ], [ 0, %12 ], [ 0, %43 ], [ 1, %59 ], [ 0, %57 ], [ 0, %55 ], [ 0, %53 ], [ 0, %51 ], [ 0, %49 ], [ 0, %47 ], [ 0, %45 ], [ 0, %27 ], [ 0, %25 ], [ 0, %36 ], [ 0, %34 ]
  %.154 = phi ptr [ null, %11 ], [ %.053, %12 ], [ %.053, %43 ], [ %.053, %59 ], [ %.053, %57 ], [ %.053, %55 ], [ %.053, %53 ], [ %.053, %51 ], [ %.053, %49 ], [ %.053, %47 ], [ %.053, %45 ], [ %.053, %27 ], [ %.053, %25 ], [ %.053, %36 ], [ %.053, %34 ]
  %.1 = phi ptr [ null, %11 ], [ %.0, %12 ], [ %.0, %43 ], [ %.0, %59 ], [ %.0, %57 ], [ %.0, %55 ], [ %.0, %53 ], [ %.0, %51 ], [ %.0, %49 ], [ %.0, %47 ], [ %.0, %45 ], [ %.0, %27 ], [ %.0, %25 ], [ %.0, %36 ], [ %.0, %34 ]
  tail call void @BN_CTX_end(ptr noundef %.154) #4
  tail call void @BN_CTX_free(ptr noundef %.1) #4
  ret i32 %.055
}